target datalayout = "e-m:e-p270:32:32-p271:32:32-p272:64:64-i64:64-i128:128-f80:128-n8:16:32:64-S128"
target triple = "x86_64-pc-linux-gnu"

%class.ShenandoahCollectorPolicy = type { i64, i64, i64, i64, i64, i32, i64, i64, i64, [34 x i64], [5 x i64], %struct.ShenandoahSharedFlag, ptr }
%struct.ShenandoahSharedFlag = type { [64 x i8], i8, [64 x i8] }
%"struct.Atomic::StoreImpl" = type { i8 }
%"struct.Atomic::PlatformOrderedStore" = type { i8 }
%class.GCTracer = type { ptr, %class.SharedGCInfo }
%class.SharedGCInfo = type { i32, i32, %class.TimeInstant, %class.TimeInstant, %class.TimeInterval, %class.TimeInterval }
%class.TimeInstant = type { %class.CompositeCounterRepresentation }
%class.CompositeCounterRepresentation = type { %class.Representation }
%class.Representation = type { %class.PairRep }
%class.PairRep = type { i64, i64 }
%class.TimeInterval = type { %class.CompositeCounterRepresentation }

@_ZTV8GCTracer = external unnamed_addr constant { [4 x ptr] }, align 8

; Function Attrs: mustprogress nounwind uwtable
define linkonce_odr hidden void @_ZN7PairRepIllEC2Ev(ptr noundef nonnull align 8 dereferenceable(16) %0) unnamed_addr #1 comdat align 2 {
  %2 = alloca ptr, align 8
  store ptr %0, ptr %2, align 8
  %3 = load ptr, ptr %2, align 8
  %4 = getelementptr inbounds %class.PairRep, ptr %3, i32 0, i32 0
  store i64 0, ptr %4, align 8
  %5 = getelementptr inbounds %class.PairRep, ptr %3, i32 0, i32 1
  store i64 0, ptr %5, align 8
  ret void
}

; Function Attrs: mustprogress nounwind uwtable
define linkonce_odr hidden void @_ZN14RepresentationI29CompositeElapsedCounterSourceEC2Ev(ptr noundef nonnull align 8 dereferenceable(16) %0) unnamed_addr #1 comdat align 2 {
  %2 = alloca ptr, align 8
  store ptr %0, ptr %2, align 8
  %3 = load ptr, ptr %2, align 8
  %4 = getelementptr inbounds %class.Representation, ptr %3, i32 0, i32 0
  call void @_ZN7PairRepIllEC2Ev(ptr noundef nonnull align 8 dereferenceable(16) %4)
  ret void
}

; Function Attrs: mustprogress nounwind uwtable
define linkonce_odr hidden void @_ZN30CompositeCounterRepresentationI29CompositeElapsedCounterSourceEC2Ev(ptr noundef nonnull align 8 dereferenceable(16) %0) unnamed_addr #1 comdat align 2 {
  %2 = alloca ptr, align 8
  store ptr %0, ptr %2, align 8
  %3 = load ptr, ptr %2, align 8
  call void @_ZN14RepresentationI29CompositeElapsedCounterSourceEC2Ev(ptr noundef nonnull align 8 dereferenceable(16) %3)
  ret void
}

; Function Attrs: mustprogress nounwind uwtable
define linkonce_odr hidden void @_ZNK6Atomic20PlatformOrderedStoreILm1EL15ScopedFenceType2EEclIaEEvPVT_S4_(ptr noundef nonnull align 1 dereferenceable(1) %0, ptr noundef %1, i8 noundef signext %2) #1 comdat align 2 {
  %4 = alloca ptr, align 8
  %5 = alloca ptr, align 8
  %6 = alloca i8, align 1
  store ptr %0, ptr %4, align 8
  store ptr %1, ptr %5, align 8
  store i8 %2, ptr %6, align 1
  %7 = load i8, ptr %6, align 1
  %8 = load ptr, ptr %5, align 8
  %9 = call i8 asm sideeffect "xchgb ($2),$0", "=q,0,r,~{memory},~{dirflag},~{fpsr},~{flags}"(i8 %7, ptr %8) #4, !srcloc !9
  store i8 %9, ptr %6, align 1
  ret void
}

; Function Attrs: mustprogress nounwind uwtable
define linkonce_odr hidden void @_ZN12TimeIntervalI30CompositeCounterRepresentation29CompositeElapsedCounterSourceEC2Ev(ptr noundef nonnull align 8 dereferenceable(16) %0) unnamed_addr #1 comdat align 2 {
  %2 = alloca ptr, align 8
  store ptr %0, ptr %2, align 8
  %3 = load ptr, ptr %2, align 8
  call void @_ZN30CompositeCounterRepresentationI29CompositeElapsedCounterSourceEC2Ev(ptr noundef nonnull align 8 dereferenceable(16) %3)
  ret void
}

; Function Attrs: mustprogress nounwind uwtable
define linkonce_odr hidden void @_ZN11TimeInstantI30CompositeCounterRepresentation29CompositeElapsedCounterSourceEC2Ev(ptr noundef nonnull align 8 dereferenceable(16) %0) unnamed_addr #1 comdat align 2 {
  %2 = alloca ptr, align 8
  store ptr %0, ptr %2, align 8
  %3 = load ptr, ptr %2, align 8
  call void @_ZN30CompositeCounterRepresentationI29CompositeElapsedCounterSourceEC2Ev(ptr noundef nonnull align 8 dereferenceable(16) %3)
  ret void
}

; Function Attrs: mustprogress nounwind uwtable
define linkonce_odr hidden void @_ZNK6Atomic9StoreImplIaaNS_20PlatformOrderedStoreILm1EL15ScopedFenceType2EEEvEclEPVaa(ptr noundef nonnull align 1 dereferenceable(1) %0, ptr noundef %1, i8 noundef signext %2) #1 comdat align 2 {
  %4 = alloca ptr, align 8
  %5 = alloca ptr, align 8
  %6 = alloca i8, align 1
  %7 = alloca %"struct.Atomic::PlatformOrderedStore", align 1
  store ptr %0, ptr %4, align 8
  store ptr %1, ptr %5, align 8
  store i8 %2, ptr %6, align 1
  %8 = load ptr, ptr %5, align 8
  %9 = load i8, ptr %6, align 1
  call void @_ZNK6Atomic20PlatformOrderedStoreILm1EL15ScopedFenceType2EEclIaEEvPVT_S4_(ptr noundef nonnull align 1 dereferenceable(1) %7, ptr noundef %8, i8 noundef signext %9)
  ret void
}

; Function Attrs: mustprogress nounwind uwtable
define linkonce_odr hidden void @_ZN12SharedGCInfoC2E6GCName(ptr noundef nonnull align 8 dereferenceable(72) %0, i32 noundef %1) unnamed_addr #1 comdat align 2 {
  %3 = alloca ptr, align 8
  %4 = alloca i32, align 4
  store ptr %0, ptr %3, align 8
  store i32 %1, ptr %4, align 4
  %5 = load ptr, ptr %3, align 8
  %6 = getelementptr inbounds %class.SharedGCInfo, ptr %5, i32 0, i32 0
  %7 = load i32, ptr %4, align 4
  store i32 %7, ptr %6, align 8
  %8 = getelementptr inbounds %class.SharedGCInfo, ptr %5, i32 0, i32 1
  store i32 34, ptr %8, align 4
  %9 = getelementptr inbounds %class.SharedGCInfo, ptr %5, i32 0, i32 2
  call void @_ZN11TimeInstantI30CompositeCounterRepresentation29CompositeElapsedCounterSourceEC2Ev(ptr noundef nonnull align 8 dereferenceable(16) %9)
  %10 = getelementptr inbounds %class.SharedGCInfo, ptr %5, i32 0, i32 3
  call void @_ZN11TimeInstantI30CompositeCounterRepresentation29CompositeElapsedCounterSourceEC2Ev(ptr noundef nonnull align 8 dereferenceable(16) %10)
  %11 = getelementptr inbounds %class.SharedGCInfo, ptr %5, i32 0, i32 4
  call void @_ZN12TimeIntervalI30CompositeCounterRepresentation29CompositeElapsedCounterSourceEC2Ev(ptr noundef nonnull align 8 dereferenceable(16) %11)
  %12 = getelementptr inbounds %class.SharedGCInfo, ptr %5, i32 0, i32 5
  call void @_ZN12TimeIntervalI30CompositeCounterRepresentation29CompositeElapsedCounterSourceEC2Ev(ptr noundef nonnull align 8 dereferenceable(16) %12)
  ret void
}

; Function Attrs: mustprogress nounwind uwtable
define linkonce_odr hidden void @_ZN6Atomic19release_store_fenceIaaEEvPVT_T0_(ptr noundef %0, i8 noundef signext %1) #1 comdat align 2 {
  %3 = alloca ptr, align 8
  %4 = alloca i8, align 1
  %5 = alloca %"struct.Atomic::StoreImpl", align 1
  store ptr %0, ptr %3, align 8
  store i8 %1, ptr %4, align 1
  %6 = load ptr, ptr %3, align 8
  %7 = load i8, ptr %4, align 1
  call void @_ZNK6Atomic9StoreImplIaaNS_20PlatformOrderedStoreILm1EL15ScopedFenceType2EEEvEclEPVaa(ptr noundef nonnull align 1 dereferenceable(1) %5, ptr noundef %6, i8 noundef signext %7)
  ret void
}

; Function Attrs: mustprogress nounwind uwtable
define linkonce_odr hidden void @_ZN8GCTracerC2E6GCName(ptr noundef nonnull align 8 dereferenceable(80) %0, i32 noundef %1) unnamed_addr #1 comdat align 2 {
  %3 = alloca ptr, align 8
  %4 = alloca i32, align 4
  store ptr %0, ptr %3, align 8
  store i32 %1, ptr %4, align 4
  %5 = load ptr, ptr %3, align 8
  store ptr getelementptr inbounds inrange(-16, 16) ({ [4 x ptr] }, ptr @_ZTV8GCTracer, i32 0, i32 0, i32 2), ptr %5, align 8
  %6 = getelementptr inbounds %class.GCTracer, ptr %5, i32 0, i32 1
  %7 = load i32, ptr %4, align 4
  call void @_ZN12SharedGCInfoC2E6GCName(ptr noundef nonnull align 8 dereferenceable(72) %6, i32 noundef %7)
  ret void
}

; Function Attrs: mustprogress nounwind uwtable
define linkonce_odr hidden void @_ZN4Copy16pd_zero_to_bytesEPvm(ptr noundef %0, i64 noundef %1) #1 comdat align 2 {
  %3 = alloca ptr, align 8
  %4 = alloca i64, align 8
  store ptr %0, ptr %3, align 8
  store i64 %1, ptr %4, align 8
  %5 = load ptr, ptr %3, align 8
  %6 = load i64, ptr %4, align 8
  call void @llvm.memset.p0.i64(ptr align 1 %5, i8 0, i64 %6, i1 false)
  ret void
}

; Function Attrs: mustprogress nounwind uwtable
define linkonce_odr hidden void @_ZN20ShenandoahSharedFlag5unsetEv(ptr noundef nonnull align 1 dereferenceable(129) %0) #1 comdat align 2 {
  %2 = alloca ptr, align 8
  store ptr %0, ptr %2, align 8
  %3 = load ptr, ptr %2, align 8
  %4 = getelementptr inbounds %struct.ShenandoahSharedFlag, ptr %3, i32 0, i32 1
  call void @_ZN6Atomic19release_store_fenceIaaEEvPVT_T0_(ptr noundef %4, i8 noundef signext 0)
  ret void
}

; Function Attrs: mustprogress nounwind uwtable
define linkonce_odr hidden void @_ZN16ShenandoahTracerC2Ev(ptr noundef nonnull align 8 dereferenceable(80) %0) unnamed_addr #1 comdat align 2 {
  %2 = alloca ptr, align 8
  store ptr %0, ptr %2, align 8
  %3 = load ptr, ptr %2, align 8
  call void @_ZN8GCTracerC2E6GCName(ptr noundef nonnull align 8 dereferenceable(80) %3, i32 noundef 10)
  store ptr getelementptr inbounds inrange(-16, 16) ({ [4 x ptr] }, ptr @_ZTV16ShenandoahTracer, i32 0, i32 0, i32 2), ptr %3, align 8
  ret void
}

; Function Attrs: mustprogress nounwind uwtable
define linkonce_odr hidden void @_ZN4Copy13zero_to_bytesEPvm(ptr noundef %0, i64 noundef %1) #1 comdat align 2 {
  %3 = alloca ptr, align 8
  %4 = alloca i64, align 8
  store ptr %0, ptr %3, align 8
  store i64 %1, ptr %4, align 8
  %5 = load ptr, ptr %3, align 8
  %6 = load i64, ptr %4, align 8
  call void @_ZN4Copy16pd_zero_to_bytesEPvm(ptr noundef %5, i64 noundef %6)
  ret void
}

; Function Attrs: mustprogress nounwind uwtable
define linkonce_odr hidden void @_ZN20ShenandoahSharedFlagC2Ev(ptr noundef nonnull align 1 dereferenceable(129) %0) unnamed_addr #1 comdat align 2 {
  %2 = alloca ptr, align 8
  store ptr %0, ptr %2, align 8
  %3 = load ptr, ptr %2, align 8
  call void @_ZN20ShenandoahSharedFlag5unsetEv(ptr noundef nonnull align 1 dereferenceable(129) %3)
  ret void
}

; Function Attrs: mustprogress nounwind uwtable
define hidden void @_ZN25ShenandoahCollectorPolicyC2Ev(ptr noundef nonnull align 8 dereferenceable(528) %0) unnamed_addr #1 align 2 {
  %2 = alloca i64, align 8
  %3 = alloca i8, align 1
  %4 = alloca i64, align 8
  %5 = alloca ptr, align 8
  store ptr %0, ptr %5, align 8
  %6 = load ptr, ptr %5, align 8
  %7 = getelementptr inbounds %class.ShenandoahCollectorPolicy, ptr %6, i32 0, i32 0
  store i64 0, ptr %7, align 8
  %8 = getelementptr inbounds %class.ShenandoahCollectorPolicy, ptr %6, i32 0, i32 1
  store i64 0, ptr %8, align 8
  %9 = getelementptr inbounds %class.ShenandoahCollectorPolicy, ptr %6, i32 0, i32 2
  store i64 0, ptr %9, align 8
  %10 = getelementptr inbounds %class.ShenandoahCollectorPolicy, ptr %6, i32 0, i32 3
  store i64 0, ptr %10, align 8
  %11 = getelementptr inbounds %class.ShenandoahCollectorPolicy, ptr %6, i32 0, i32 4
  store volatile i64 0, ptr %11, align 8
  %12 = getelementptr inbounds %class.ShenandoahCollectorPolicy, ptr %6, i32 0, i32 5
  store i32 0, ptr %12, align 8
  %13 = getelementptr inbounds %class.ShenandoahCollectorPolicy, ptr %6, i32 0, i32 6
  store i64 0, ptr %13, align 8
  %14 = getelementptr inbounds %class.ShenandoahCollectorPolicy, ptr %6, i32 0, i32 7
  store i64 0, ptr %14, align 8
  %15 = getelementptr inbounds %class.ShenandoahCollectorPolicy, ptr %6, i32 0, i32 8
  store i64 0, ptr %15, align 8
  %16 = getelementptr inbounds %class.ShenandoahCollectorPolicy, ptr %6, i32 0, i32 11
  call void @_ZN20ShenandoahSharedFlagC2Ev(ptr noundef nonnull align 1 dereferenceable(129) %16)
  %17 = getelementptr inbounds %class.ShenandoahCollectorPolicy, ptr %6, i32 0, i32 10
  %18 = getelementptr inbounds [5 x i64], ptr %17, i64 0, i64 0
  call void @_ZN4Copy13zero_to_bytesEPvm(ptr noundef %18, i64 noundef 40)
  %19 = getelementptr inbounds %class.ShenandoahCollectorPolicy, ptr %6, i32 0, i32 9
  %20 = getelementptr inbounds [34 x i64], ptr %19, i64 0, i64 0
  call void @_ZN4Copy13zero_to_bytesEPvm(ptr noundef %20, i64 noundef 272)
  store i64 80, ptr %4, align 8
  %21 = load i64, ptr %4, align 8
  store i64 %21, ptr %2, align 8
  store i8 5, ptr %3, align 1
  %22 = load i64, ptr %2, align 8
  %23 = load i8, ptr %3, align 1
  %24 = call noundef ptr @_Z12AllocateHeapm8MEMFLAGSN17AllocFailStrategy13AllocFailEnumE(i64 noundef %22, i8 noundef zeroext %23, i32 noundef 0) #4
  call void @_ZN16ShenandoahTracerC2Ev(ptr noundef nonnull align 8 dereferenceable(80) %24)
  %25 = getelementptr inbounds %class.ShenandoahCollectorPolicy, ptr %6, i32 0, i32 12
  store ptr %24, ptr %25, align 8
  ret void
}