; Function Attrs: mustprogress nounwind uwtable
define hidden void @_ZN25ShenandoahCollectorPolicyC2Ev(ptr noundef nonnull align 8 dereferenceable(528) %0) unnamed_addr #0 align 2 {
  %2 = getelementptr inbounds i8, ptr %0, i64 32
  tail call void @llvm.memset.p0.i64(ptr noundef nonnull align 8 dereferenceable(32) %0, i8 0, i64 32, i1 false)
  store volatile i64 0, ptr %2, align 8
  %3 = getelementptr inbounds i8, ptr %0, i64 40
  store i32 0, ptr %3, align 8
  %4 = getelementptr inbounds i8, ptr %0, i64 48
  %5 = getelementptr inbounds i8, ptr %0, i64 448
  tail call void @llvm.memset.p0.i64(ptr noundef nonnull align 8 dereferenceable(24) %4, i8 0, i64 24, i1 false)
  %6 = tail call i8 asm sideeffect "xchgb ($2),$0", "=q,0,r,~{memory},~{dirflag},~{fpsr},~{flags}"(i8 0, ptr nonnull %5) #9, !srcloc !6
  %7 = getelementptr inbounds i8, ptr %0, i64 72
  tail call void @llvm.memset.p0.i64(ptr noundef nonnull align 8 dereferenceable(312) %7, i8 0, i64 312, i1 false)
  %8 = tail call noundef ptr @_Z12AllocateHeapm8MEMFLAGSN17AllocFailStrategy13AllocFailEnumE(i64 noundef 80, i8 noundef zeroext 5, i32 noundef 0) #9
  %9 = getelementptr inbounds i8, ptr %8, i64 8
  store i32 10, ptr %9, align 8
  %10 = getelementptr inbounds i8, ptr %8, i64 12
  store i32 34, ptr %10, align 4
  %11 = getelementptr inbounds i8, ptr %8, i64 16
  tail call void @llvm.memset.p0.i64(ptr noundef nonnull align 8 dereferenceable(64) %11, i8 0, i64 64, i1 false)
  store ptr getelementptr inbounds inrange(-16, 16) (i8, ptr @_ZTV16ShenandoahTracer, i64 16), ptr %8, align 8
  %12 = getelementptr inbounds i8, ptr %0, i64 520
  store ptr %8, ptr %12, align 8
  ret void
}